; Function Attrs: mustprogress uwtable
define void @_ZN6duckdb14FunctionBinder21BindAggregateFunctionENS_17AggregateFunctionENS_6vectorINS_10unique_ptrINS_10ExpressionESt14default_deleteIS4_ELb1EEELb1EEES7_NS_13AggregateTypeE(ptr dead_on_unwind noalias writable sret(%"class.duckdb::unique_ptr.345") align 8 %agg.result, ptr nocapture noundef nonnull readonly align 8 dereferenceable(8) %this, ptr noundef %bound_function, ptr noundef %children, ptr noundef %filter, i8 noundef zeroext %aggr_type) local_unnamed_addr #3 align 2 personality ptr @__gxx_personality_v0 {
entry:
  %aggr_type.addr = alloca i8, align 1
  %bind_info = alloca %"class.duckdb::unique_ptr.198", align 8
  store i8 %aggr_type, ptr %aggr_type.addr, align 1, !tbaa !208
  call void @llvm.lifetime.start.p0(i64 8, ptr nonnull %bind_info) #28
  store ptr null, ptr %bind_info, align 8, !tbaa !203
  %bind = getelementptr inbounds i8, ptr %bound_function, i64 240
  %0 = load ptr, ptr %bind, align 8, !tbaa !210
  %tobool.not = icmp eq ptr %0, null
  br i1 %tobool.not, label %if.end, label %if.then

if.then:                                          ; preds = %entry
  %1 = load ptr, ptr %this, align 8, !tbaa !173
  call void %0(ptr dead_on_unwind nonnull writable sret(%"class.duckdb::unique_ptr.198") align 8 %bind_info, ptr noundef nonnull align 8 dereferenceable(592) %1, ptr noundef nonnull align 8 dereferenceable(281) %bound_function, ptr noundef nonnull align 8 dereferenceable(24) %children)
  %.pre32 = load ptr, ptr %children, align 8, !tbaa !185
  %_M_finish.i14.phi.trans.insert = getelementptr inbounds i8, ptr %children, i64 8
  %.pre31 = load ptr, ptr %_M_finish.i14.phi.trans.insert, align 8, !tbaa !169
  %arguments.phi.trans.insert = getelementptr inbounds i8, ptr %bound_function, i64 72
  %.pre30 = load ptr, ptr %arguments.phi.trans.insert, align 8, !tbaa !131
  %_M_finish.i.phi.trans.insert = getelementptr inbounds i8, ptr %bound_function, i64 80
  %.pre = load ptr, ptr %_M_finish.i.phi.trans.insert, align 8, !tbaa !132
  %sub.ptr.lhs.cast.i = ptrtoint ptr %.pre to i64
  %sub.ptr.rhs.cast.i = ptrtoint ptr %.pre30 to i64
  %sub.ptr.sub.i = sub i64 %sub.ptr.lhs.cast.i, %sub.ptr.rhs.cast.i
  %sub.ptr.div.i = sdiv exact i64 %sub.ptr.sub.i, 24
  %sub.ptr.lhs.cast.i15 = ptrtoint ptr %.pre31 to i64
  %sub.ptr.rhs.cast.i16 = ptrtoint ptr %.pre32 to i64
  %sub.ptr.sub.i17 = sub i64 %sub.ptr.lhs.cast.i15, %sub.ptr.rhs.cast.i16
  %sub.ptr.div.i18 = ashr exact i64 %sub.ptr.sub.i17, 3
  %cond.i = call noundef i64 @llvm.umin.i64(i64 %sub.ptr.div.i, i64 %sub.ptr.div.i18)
  invoke void @_ZNSt6vectorIN6duckdb10unique_ptrINS0_10ExpressionESt14default_deleteIS2_ELb1EEESaIS5_EE6resizeEm(ptr noundef nonnull align 8 dereferenceable(24) %children, i64 noundef %cond.i)
          to label %if.end unwind label %ehcleanup

if.end:                                           ; preds = %if.then, %entry
  invoke void @_ZN6duckdb14FunctionBinder23CastToFunctionArgumentsERNS_14SimpleFunctionERNS_6vectorINS_10unique_ptrINS_10ExpressionESt14default_deleteIS5_ELb1EEELb1EEE(ptr noundef nonnull align 8 dereferenceable(8) %this, ptr noundef nonnull align 8 dereferenceable(144) %bound_function, ptr noundef nonnull align 8 dereferenceable(24) %children)
          to label %invoke.cont9 unwind label %ehcleanup

invoke.cont9:                                     ; preds = %if.end
  invoke void @_ZN6duckdb9make_uniqINS_24BoundAggregateExpressionEJNS_17AggregateFunctionENS_6vectorINS_10unique_ptrINS_10ExpressionESt14default_deleteIS5_ELb1EEELb1EEES8_NS4_INS_12FunctionDataES6_ISA_ELb1EEERNS_13AggregateTypeEEEENS_11__unique_ifIT_Lb1EE15__unique_singleEDpOT0_(ptr dead_on_unwind writable sret(%"class.duckdb::unique_ptr.345") align 8 %agg.result, ptr noundef nonnull align 8 dereferenceable(281) %bound_function, ptr noundef nonnull align 8 dereferenceable(24) %children, ptr noundef nonnull align 8 dereferenceable(8) %filter, ptr noundef nonnull align 8 dereferenceable(8) %bind_info, ptr noundef nonnull align 1 dereferenceable(1) %aggr_type.addr)
          to label %invoke.cont10 unwind label %ehcleanup

invoke.cont10:                                    ; preds = %invoke.cont9
  %2 = load ptr, ptr %bind_info, align 8, !tbaa !4
  %cmp.not.i19 = icmp eq ptr %2, null
  br i1 %cmp.not.i19, label %_ZNSt10unique_ptrIN6duckdb12FunctionDataESt14default_deleteIS1_EED2Ev.exit23, label %_ZNKSt14default_deleteIN6duckdb12FunctionDataEEclEPS1_.exit.i20

_ZNKSt14default_deleteIN6duckdb12FunctionDataEEclEPS1_.exit.i20: ; preds = %invoke.cont10
  %vtable.i.i21 = load ptr, ptr %2, align 8, !tbaa !16
  %vfn.i.i22 = getelementptr inbounds i8, ptr %vtable.i.i21, i64 8
  %3 = load ptr, ptr %vfn.i.i22, align 8
  call void %3(ptr noundef nonnull align 8 dereferenceable(8) %2) #28
  br label %_ZNSt10unique_ptrIN6duckdb12FunctionDataESt14default_deleteIS1_EED2Ev.exit23

_ZNSt10unique_ptrIN6duckdb12FunctionDataESt14default_deleteIS1_EED2Ev.exit23: ; preds = %_ZNKSt14default_deleteIN6duckdb12FunctionDataEEclEPS1_.exit.i20, %invoke.cont10
  call void @llvm.lifetime.end.p0(i64 8, ptr nonnull %bind_info) #28
  ret void

ehcleanup:                                        ; preds = %invoke.cont9, %if.end, %if.then
  %4 = landingpad { ptr, i32 }
          cleanup
  %.pre33 = load ptr, ptr %bind_info, align 8, !tbaa !4
  %cmp.not.i24 = icmp eq ptr %.pre33, null
  br i1 %cmp.not.i24, label %_ZNSt10unique_ptrIN6duckdb12FunctionDataESt14default_deleteIS1_EED2Ev.exit28, label %_ZNKSt14default_deleteIN6duckdb12FunctionDataEEclEPS1_.exit.i25

_ZNKSt14default_deleteIN6duckdb12FunctionDataEEclEPS1_.exit.i25: ; preds = %ehcleanup
  %vtable.i.i26 = load ptr, ptr %.pre33, align 8, !tbaa !16
  %vfn.i.i27 = getelementptr inbounds i8, ptr %vtable.i.i26, i64 8
  %5 = load ptr, ptr %vfn.i.i27, align 8
  call void %5(ptr noundef nonnull align 8 dereferenceable(8) %.pre33) #28
  br label %_ZNSt10unique_ptrIN6duckdb12FunctionDataESt14default_deleteIS1_EED2Ev.exit28

_ZNSt10unique_ptrIN6duckdb12FunctionDataESt14default_deleteIS1_EED2Ev.exit28: ; preds = %_ZNKSt14default_deleteIN6duckdb12FunctionDataEEclEPS1_.exit.i25, %ehcleanup
  call void @llvm.lifetime.end.p0(i64 8, ptr nonnull %bind_info) #28
  resume { ptr, i32 } %4
}